; Function Attrs: nounwind uwtable
define ptr @l_Std_Time_Internal_Bounded_ofInt_x3f___rarg(ptr noundef %0, ptr noundef %1, ptr noundef %2, ptr noundef %3) #1 {
  %5 = ptrtoint ptr %2 to i64
  %6 = and i64 %5, 1
  %.not = icmp eq i64 %6, 0
  br i1 %.not, label %7, label %lean_inc.exit30

7:                                                ; preds = %4
  %.val.i = load i32, ptr %2, align 4, !tbaa !4
  %8 = icmp sgt i32 %.val.i, 0
  br i1 %8, label %9, label %11, !prof !9

9:                                                ; preds = %7
  %10 = add nuw i32 %.val.i, 1
  store i32 %10, ptr %2, align 4, !tbaa !4
  br label %lean_inc.exit30

11:                                               ; preds = %7
  %.not.i41 = icmp eq i32 %.val.i, 0
  br i1 %.not.i41, label %lean_inc.exit30, label %12

12:                                               ; preds = %11
  tail call void @lean_inc_ref_cold(ptr noundef nonnull %2) #5
  br label %lean_inc.exit30

lean_inc.exit30:                                  ; preds = %12, %11, %9, %4
  %13 = ptrtoint ptr %3 to i64
  %14 = and i64 %13, 1
  %.not48 = icmp eq i64 %14, 0
  br i1 %.not48, label %15, label %lean_inc.exit29

15:                                               ; preds = %lean_inc.exit30
  %.val.i42 = load i32, ptr %3, align 4, !tbaa !4
  %16 = icmp sgt i32 %.val.i42, 0
  br i1 %16, label %17, label %19, !prof !9

17:                                               ; preds = %15
  %18 = add nuw i32 %.val.i42, 1
  store i32 %18, ptr %3, align 4, !tbaa !4
  br label %lean_inc.exit29

19:                                               ; preds = %15
  %.not.i43 = icmp eq i32 %.val.i42, 0
  br i1 %.not.i43, label %lean_inc.exit29, label %20

20:                                               ; preds = %19
  tail call void @lean_inc_ref_cold(ptr noundef nonnull %3) #5
  br label %lean_inc.exit29

lean_inc.exit29:                                  ; preds = %20, %19, %17, %lean_inc.exit30
  %21 = tail call ptr @lean_apply_2(ptr noundef %2, ptr noundef %0, ptr noundef %3) #5
  %22 = ptrtoint ptr %21 to i64
  %23 = and i64 %22, 1
  %.not49 = icmp eq i64 %23, 0
  br i1 %.not49, label %24, label %lean_dec.exit28

24:                                               ; preds = %lean_inc.exit29
  %25 = load i32, ptr %21, align 4, !tbaa !4
  %26 = icmp sgt i32 %25, 1
  br i1 %26, label %27, label %29, !prof !9

27:                                               ; preds = %24
  %28 = add nsw i32 %25, -1
  store i32 %28, ptr %21, align 4, !tbaa !4
  br label %lean_dec.exit28

29:                                               ; preds = %24
  %.not.i = icmp eq i32 %25, 0
  br i1 %.not.i, label %lean_dec.exit28, label %30

30:                                               ; preds = %29
  tail call void @lean_dec_ref_cold(ptr noundef nonnull %21) #5
  br label %lean_dec.exit28

lean_dec.exit28:                                  ; preds = %30, %29, %27, %lean_inc.exit29
  %31 = and i64 %22, 510
  %32 = icmp eq i64 %31, 0
  br i1 %32, label %33, label %57

33:                                               ; preds = %lean_dec.exit28
  br i1 %.not48, label %34, label %lean_dec.exit27

34:                                               ; preds = %33
  %35 = load i32, ptr %3, align 4, !tbaa !4
  %36 = icmp sgt i32 %35, 1
  br i1 %36, label %37, label %39, !prof !9

37:                                               ; preds = %34
  %38 = add nsw i32 %35, -1
  store i32 %38, ptr %3, align 4, !tbaa !4
  br label %lean_dec.exit27

39:                                               ; preds = %34
  %.not.i31 = icmp eq i32 %35, 0
  br i1 %.not.i31, label %lean_dec.exit27, label %40

40:                                               ; preds = %39
  tail call void @lean_dec_ref_cold(ptr noundef nonnull %3) #5
  br label %lean_dec.exit27

lean_dec.exit27:                                  ; preds = %40, %39, %37, %33
  br i1 %.not, label %41, label %lean_dec.exit26

41:                                               ; preds = %lean_dec.exit27
  %42 = load i32, ptr %2, align 4, !tbaa !4
  %43 = icmp sgt i32 %42, 1
  br i1 %43, label %44, label %46, !prof !9

44:                                               ; preds = %41
  %45 = add nsw i32 %42, -1
  store i32 %45, ptr %2, align 4, !tbaa !4
  br label %lean_dec.exit26

46:                                               ; preds = %41
  %.not.i33 = icmp eq i32 %42, 0
  br i1 %.not.i33, label %lean_dec.exit26, label %47

47:                                               ; preds = %46
  tail call void @lean_dec_ref_cold(ptr noundef nonnull %2) #5
  br label %lean_dec.exit26

lean_dec.exit26:                                  ; preds = %47, %46, %44, %lean_dec.exit27
  %48 = ptrtoint ptr %1 to i64
  %49 = and i64 %48, 1
  %.not51 = icmp eq i64 %49, 0
  br i1 %.not51, label %50, label %lean_dec.exit25

50:                                               ; preds = %lean_dec.exit26
  %51 = load i32, ptr %1, align 4, !tbaa !4
  %52 = icmp sgt i32 %51, 1
  br i1 %52, label %53, label %55, !prof !9

53:                                               ; preds = %50
  %54 = add nsw i32 %51, -1
  store i32 %54, ptr %1, align 4, !tbaa !4
  br label %lean_dec.exit25

55:                                               ; preds = %50
  %.not.i35 = icmp eq i32 %51, 0
  br i1 %.not.i35, label %lean_dec.exit25, label %56

56:                                               ; preds = %55
  tail call void @lean_dec_ref_cold(ptr noundef nonnull %1) #5
  br label %lean_dec.exit25

57:                                               ; preds = %lean_dec.exit28
  br i1 %.not48, label %58, label %lean_inc.exit

58:                                               ; preds = %57
  %.val.i45 = load i32, ptr %3, align 4, !tbaa !4
  %59 = icmp sgt i32 %.val.i45, 0
  br i1 %59, label %60, label %62, !prof !9

60:                                               ; preds = %58
  %61 = add nuw i32 %.val.i45, 1
  store i32 %61, ptr %3, align 4, !tbaa !4
  br label %lean_inc.exit

62:                                               ; preds = %58
  %.not.i46 = icmp eq i32 %.val.i45, 0
  br i1 %.not.i46, label %lean_inc.exit, label %63

63:                                               ; preds = %62
  tail call void @lean_inc_ref_cold(ptr noundef nonnull %3) #5
  br label %lean_inc.exit

lean_inc.exit:                                    ; preds = %63, %62, %60, %57
  %64 = tail call ptr @lean_apply_2(ptr noundef %2, ptr noundef %3, ptr noundef %1) #5
  %65 = ptrtoint ptr %64 to i64
  %66 = and i64 %65, 1
  %.not50 = icmp eq i64 %66, 0
  br i1 %.not50, label %67, label %lean_dec.exit24

67:                                               ; preds = %lean_inc.exit
  %68 = load i32, ptr %64, align 4, !tbaa !4
  %69 = icmp sgt i32 %68, 1
  br i1 %69, label %70, label %72, !prof !9

70:                                               ; preds = %67
  %71 = add nsw i32 %68, -1
  store i32 %71, ptr %64, align 4, !tbaa !4
  br label %lean_dec.exit24

72:                                               ; preds = %67
  %.not.i37 = icmp eq i32 %68, 0
  br i1 %.not.i37, label %lean_dec.exit24, label %73

73:                                               ; preds = %72
  tail call void @lean_dec_ref_cold(ptr noundef nonnull %64) #5
  br label %lean_dec.exit24

lean_dec.exit24:                                  ; preds = %73, %72, %70, %lean_inc.exit
  %74 = and i64 %65, 510
  %75 = icmp eq i64 %74, 0
  br i1 %75, label %76, label %84

76:                                               ; preds = %lean_dec.exit24
  br i1 %.not48, label %77, label %lean_dec.exit25

77:                                               ; preds = %76
  %78 = load i32, ptr %3, align 4, !tbaa !4
  %79 = icmp sgt i32 %78, 1
  br i1 %79, label %80, label %82, !prof !9

80:                                               ; preds = %77
  %81 = add nsw i32 %78, -1
  store i32 %81, ptr %3, align 4, !tbaa !4
  br label %lean_dec.exit25

82:                                               ; preds = %77
  %.not.i39 = icmp eq i32 %78, 0
  br i1 %.not.i39, label %lean_dec.exit25, label %83

83:                                               ; preds = %82
  tail call void @lean_dec_ref_cold(ptr noundef nonnull %3) #5
  br label %lean_dec.exit25

84:                                               ; preds = %lean_dec.exit24
  tail call void @lean_inc_heartbeat() #5
  %85 = tail call noalias ptr @mi_malloc_small(i64 noundef 16) #5
  %86 = icmp eq ptr %85, null
  br i1 %86, label %87, label %lean_alloc_ctor.exit

87:                                               ; preds = %84
  tail call void @lean_internal_panic_out_of_memory() #6
  unreachable

lean_alloc_ctor.exit:                             ; preds = %84
  %88 = getelementptr inbounds nuw i8, ptr %85, i64 4
  store i32 1, ptr %85, align 4, !tbaa !4
  store i32 16842768, ptr %88, align 4
  %89 = getelementptr inbounds nuw i8, ptr %85, i64 8
  store ptr %3, ptr %89, align 8, !tbaa !12
  br label %lean_dec.exit25

lean_dec.exit25:                                  ; preds = %76, %80, %82, %83, %lean_dec.exit26, %53, %55, %56, %lean_alloc_ctor.exit
  %.0 = phi ptr [ %85, %lean_alloc_ctor.exit ], [ inttoptr (i64 1 to ptr), %56 ], [ inttoptr (i64 1 to ptr), %55 ], [ inttoptr (i64 1 to ptr), %53 ], [ inttoptr (i64 1 to ptr), %lean_dec.exit26 ], [ inttoptr (i64 1 to ptr), %83 ], [ inttoptr (i64 1 to ptr), %82 ], [ inttoptr (i64 1 to ptr), %80 ], [ inttoptr (i64 1 to ptr), %76 ]
  ret ptr %.0
}